; Function Attrs: mustprogress uwtable
define internal void @_ZNK5faiss12_GLOBAL__N_118IVFBinaryScannerL2INS_17HammingComputer20EE16scan_codes_rangeEmPKhPKliRNS_16RangeQueryResultE(ptr nocapture noundef nonnull readonly align 8 dereferenceable(56) %0, i64 noundef %1, ptr noalias nocapture noundef readonly %2, ptr noalias nocapture noundef readonly %3, i32 noundef %4, ptr noundef nonnull align 8 dereferenceable(24) %5) unnamed_addr #1 align 2 {
  %.not18 = icmp eq i64 %1, 0
  br i1 %.not18, label %._crit_edge, label %.lr.ph

.lr.ph:                                           ; preds = %6
  %7 = getelementptr inbounds i8, ptr %0, i64 8
  %8 = getelementptr inbounds i8, ptr %0, i64 24
  %9 = getelementptr inbounds i8, ptr %0, i64 40
  %10 = getelementptr inbounds i8, ptr %0, i64 48
  %11 = getelementptr inbounds i8, ptr %0, i64 32
  br label %12

12:                                               ; preds = %.lr.ph, %40
  %.017 = phi ptr [ %2, %.lr.ph ], [ %42, %40 ]
  %.01315 = phi i64 [ 0, %.lr.ph ], [ %43, %40 ]
  %13 = load <2 x i64>, ptr %.017, align 8
  %14 = load <2 x i64>, ptr %7, align 8
  %15 = xor <2 x i64> %14, %13
  %16 = tail call <2 x i64> @llvm.ctpop.v2i64(<2 x i64> %15), !range !210
  %17 = trunc <2 x i64> %16 to <2 x i32>
  %shift = shufflevector <2 x i32> %17, <2 x i32> poison, <2 x i32> <i32 1, i32 poison>
  %18 = add nuw nsw <2 x i32> %shift, %17
  %19 = extractelement <2 x i32> %18, i64 0
  %20 = getelementptr inbounds i8, ptr %.017, i64 16
  %21 = load i32, ptr %20, align 4
  %22 = load i32, ptr %8, align 8
  %23 = xor i32 %22, %21
  %24 = tail call i32 @llvm.ctpop.i32(i32 %23), !range !206
  %25 = add nuw nsw i32 %19, %24
  %26 = icmp ult i32 %25, %4
  br i1 %26, label %27, label %40

27:                                               ; preds = %12
  %28 = load i8, ptr %9, align 8
  %29 = and i8 %28, 1
  %.not = icmp eq i8 %29, 0
  br i1 %.not, label %34, label %30

30:                                               ; preds = %27
  %31 = load i64, ptr %10, align 8
  %32 = shl i64 %31, 32
  %33 = or i64 %32, %.01315
  br label %37

34:                                               ; preds = %27
  %35 = getelementptr inbounds i64, ptr %3, i64 %.01315
  %36 = load i64, ptr %35, align 8
  br label %37

37:                                               ; preds = %34, %30
  %38 = phi i64 [ %33, %30 ], [ %36, %34 ]
  %39 = uitofp i32 %25 to float
  tail call void @_ZN5faiss16RangeQueryResult3addEfl(ptr noundef nonnull align 8 dereferenceable(24) %5, float noundef %39, i64 noundef %38)
  br label %40

40:                                               ; preds = %37, %12
  %41 = load i64, ptr %11, align 8
  %42 = getelementptr inbounds i8, ptr %.017, i64 %41
  %43 = add nuw i64 %.01315, 1
  %exitcond.not = icmp eq i64 %43, %1
  br i1 %exitcond.not, label %._crit_edge, label %12, !llvm.loop !216

._crit_edge:                                      ; preds = %40, %6
  ret void
}